target datalayout = "e-m:e-p270:32:32-p271:32:32-p272:64:64-i64:64-i128:128-f80:128-n8:16:32:64-S128"
target triple = "x86_64-pc-linux-gnu"

%struct.backup_manifest_info = type { ptr, i32, ptr, i64, i8, i8, i8 }

@.str = private unnamed_addr constant [53 x i8] c"failed to initialize checksum of backup manifest: %s\00", align 1
@.str.1 = private unnamed_addr constant [18 x i8] c"backup_manifest.c\00", align 1
@__func__.InitializeBackupManifest = private unnamed_addr constant [25 x i8] c"InitializeBackupManifest\00", align 1
@.str.2 = private unnamed_addr constant [80 x i8] c"{ \22PostgreSQL-Backup-Manifest-Version\22: 2,\0A\22System-Identifier\22: %lu,\0A\22Files\22: [\00", align 1

; Function Attrs: nounwind uwtable
define dso_local void @InitializeBackupManifest(ptr noundef %0, i32 noundef %1, i32 noundef %2) #0 {
  %4 = alloca ptr, align 8
  %5 = alloca i32, align 4
  %6 = alloca i32, align 4
  %7 = alloca ptr, align 8
  store ptr %0, ptr %4, align 8
  store i32 %1, ptr %5, align 4
  store i32 %2, ptr %6, align 4
  %8 = load ptr, ptr %4, align 8
  call void @llvm.memset.p0.i64(ptr align 8 %8, i8 0, i64 40, i1 false)
  %9 = load i32, ptr %6, align 4
  %10 = load ptr, ptr %4, align 8
  %11 = getelementptr inbounds nuw %struct.backup_manifest_info, ptr %10, i32 0, i32 1
  store i32 %9, ptr %11, align 8
  %12 = load i32, ptr %5, align 4
  %13 = icmp eq i32 %12, 1
  br i1 %13, label %14, label %17

14:                                               ; preds = %3
  %15 = load ptr, ptr %4, align 8
  %16 = getelementptr inbounds nuw %struct.backup_manifest_info, ptr %15, i32 0, i32 0
  store ptr null, ptr %16, align 8
  br label %44

17:                                               ; preds = %3
  %18 = call ptr @BufFileCreateTemp(i1 noundef zeroext false)
  %19 = load ptr, ptr %4, align 8
  %20 = getelementptr inbounds nuw %struct.backup_manifest_info, ptr %19, i32 0, i32 0
  store ptr %18, ptr %20, align 8
  %21 = call ptr @pg_cryptohash_create(i32 noundef 3)
  %22 = load ptr, ptr %4, align 8
  %23 = getelementptr inbounds nuw %struct.backup_manifest_info, ptr %22, i32 0, i32 2
  store ptr %21, ptr %23, align 8
  %24 = load ptr, ptr %4, align 8
  %25 = getelementptr inbounds nuw %struct.backup_manifest_info, ptr %24, i32 0, i32 2
  %26 = load ptr, ptr %25, align 8
  %27 = call i32 @pg_cryptohash_init(ptr noundef %26)
  %28 = icmp slt i32 %27, 0
  br i1 %28, label %29, label %43

29:                                               ; preds = %17
  br label %30

30:                                               ; preds = %29
  br i1 true, label %31, label %33

31:                                               ; preds = %30
  %32 = call zeroext i1 @errstart_cold(i32 noundef 21, ptr noundef null) #7
  br i1 %32, label %35, label %41

33:                                               ; preds = %30
  %34 = call zeroext i1 @errstart(i32 noundef 21, ptr noundef null)
  br i1 %34, label %35, label %41

35:                                               ; preds = %33, %31
  %36 = load ptr, ptr %4, align 8
  %37 = getelementptr inbounds nuw %struct.backup_manifest_info, ptr %36, i32 0, i32 2
  %38 = load ptr, ptr %37, align 8
  %39 = call ptr @pg_cryptohash_error(ptr noundef %38)
  %40 = call i32 (ptr, ...) @errmsg_internal(ptr noundef @.str, ptr noundef %39)
  call void @errfinish(ptr noundef @.str.1, i32 noundef 72, ptr noundef @__func__.InitializeBackupManifest)
  br label %41

41:                                               ; preds = %35, %33, %31
  unreachable

42:                                               ; No predecessors!
  br label %43

43:                                               ; preds = %42, %17
  br label %44

44:                                               ; preds = %43, %14
  %45 = load ptr, ptr %4, align 8
  %46 = getelementptr inbounds nuw %struct.backup_manifest_info, ptr %45, i32 0, i32 3
  store i64 0, ptr %46, align 8
  %47 = load i32, ptr %5, align 4
  %48 = icmp eq i32 %47, 2
  %49 = load ptr, ptr %4, align 8
  %50 = getelementptr inbounds nuw %struct.backup_manifest_info, ptr %49, i32 0, i32 4
  %51 = zext i1 %48 to i8
  store i8 %51, ptr %50, align 8
  %52 = load ptr, ptr %4, align 8
  %53 = getelementptr inbounds nuw %struct.backup_manifest_info, ptr %52, i32 0, i32 5
  store i8 1, ptr %53, align 1
  %54 = load ptr, ptr %4, align 8
  %55 = getelementptr inbounds nuw %struct.backup_manifest_info, ptr %54, i32 0, i32 6
  store i8 1, ptr %55, align 2
  %56 = load i32, ptr %5, align 4
  %57 = icmp ne i32 %56, 1
  br i1 %57, label %58, label %64

58:                                               ; preds = %44
  call void @llvm.lifetime.start.p0(i64 8, ptr %7) #8
  %59 = call i64 @GetSystemIdentifier()
  %60 = call ptr (ptr, ...) @psprintf(ptr noundef @.str.2, i64 noundef %59)
  store ptr %60, ptr %7, align 8
  %61 = load ptr, ptr %4, align 8
  %62 = load ptr, ptr %7, align 8
  call void @AppendStringToManifest(ptr noundef %61, ptr noundef %62)
  %63 = load ptr, ptr %7, align 8
  call void @pfree(ptr noundef %63)
  call void @llvm.lifetime.end.p0(i64 8, ptr %7) #8
  br label %64

64:                                               ; preds = %58, %44
  ret void
}