; Function Attrs: nounwind uwtable
define dso_local void @InitializeBackupManifest(ptr noundef captures(none) initializes((0, 40)) %0, i32 noundef %1, i32 noundef %2) local_unnamed_addr #0 {
  tail call void @llvm.memset.p0.i64(ptr noundef nonnull align 8 dereferenceable(40) %0, i8 0, i64 40, i1 false)
  %4 = getelementptr inbounds nuw i8, ptr %0, i64 8
  store i32 %2, ptr %4, align 8
  %5 = icmp eq i32 %1, 1
  br i1 %5, label %.thread, label %10

.thread:                                          ; preds = %3
  %6 = getelementptr inbounds nuw i8, ptr %0, i64 24
  store i64 0, ptr %6, align 8
  %7 = getelementptr inbounds nuw i8, ptr %0, i64 32
  store i8 0, ptr %7, align 8
  %8 = getelementptr inbounds nuw i8, ptr %0, i64 33
  store i8 1, ptr %8, align 1
  %9 = getelementptr inbounds nuw i8, ptr %0, i64 34
  store i8 1, ptr %9, align 2
  br label %30

10:                                               ; preds = %3
  %11 = tail call ptr @BufFileCreateTemp(i1 noundef zeroext false) #8
  store ptr %11, ptr %0, align 8
  %12 = tail call ptr @pg_cryptohash_create(i32 noundef 3) #8
  %13 = getelementptr inbounds nuw i8, ptr %0, i64 16
  store ptr %12, ptr %13, align 8
  %14 = tail call i32 @pg_cryptohash_init(ptr noundef %12) #8
  %15 = icmp slt i32 %14, 0
  br i1 %15, label %16, label %21

16:                                               ; preds = %10
  %17 = tail call zeroext i1 @errstart_cold(i32 noundef 21, ptr noundef null) #9
  tail call void @llvm.assume(i1 %17)
  %18 = load ptr, ptr %13, align 8
  %19 = tail call ptr @pg_cryptohash_error(ptr noundef %18) #8
  %20 = tail call i32 (ptr, ...) @errmsg_internal(ptr noundef nonnull @.str, ptr noundef %19) #8
  tail call void @errfinish(ptr noundef nonnull @.str.1, i32 noundef 72, ptr noundef nonnull @__func__.InitializeBackupManifest) #8
  unreachable

21:                                               ; preds = %10
  %22 = getelementptr inbounds nuw i8, ptr %0, i64 24
  store i64 0, ptr %22, align 8
  %23 = icmp eq i32 %1, 2
  %24 = getelementptr inbounds nuw i8, ptr %0, i64 32
  %25 = zext i1 %23 to i8
  store i8 %25, ptr %24, align 8
  %26 = getelementptr inbounds nuw i8, ptr %0, i64 33
  store i8 1, ptr %26, align 1
  %27 = getelementptr inbounds nuw i8, ptr %0, i64 34
  store i8 1, ptr %27, align 2
  %28 = tail call i64 @GetSystemIdentifier() #8
  %29 = tail call ptr (ptr, ...) @psprintf(ptr noundef nonnull @.str.2, i64 noundef %28) #8
  tail call fastcc void @AppendStringToManifest(ptr noundef nonnull %0, ptr noundef %29)
  tail call void @pfree(ptr noundef %29) #8
  br label %30

30:                                               ; preds = %.thread, %21
  ret void
}